target datalayout = "e-m:e-p270:32:32-p271:32:32-p272:64:64-i64:64-i128:128-f80:128-n8:16:32:64-S128"
target triple = "x86_64-pc-linux-gnu"

; Function Attrs: nounwind uwtable
define internal i32 @raccess_guess_apple_double(ptr noundef %0, ptr noundef %1, ptr noundef %2, ptr noundef %3, ptr noundef %4) #0 {
  %6 = alloca i32, align 4
  %7 = alloca ptr, align 8
  %8 = alloca ptr, align 8
  %9 = alloca ptr, align 8
  %10 = alloca ptr, align 8
  %11 = alloca ptr, align 8
  %12 = alloca i32, align 4
  %13 = alloca i32, align 4
  store ptr %0, ptr %7, align 8, !tbaa !70
  store ptr %1, ptr %8, align 8, !tbaa !268
  store ptr %2, ptr %9, align 8, !tbaa !183
  store ptr %3, ptr %10, align 8, !tbaa !631
  store ptr %4, ptr %11, align 8, !tbaa !10
  call void @llvm.lifetime.start.p0(i64 4, ptr %12) #10
  store i32 333319, ptr %12, align 4, !tbaa !8
  %14 = load ptr, ptr %10, align 8, !tbaa !631
  store ptr null, ptr %14, align 8, !tbaa !183
  %15 = load ptr, ptr %8, align 8, !tbaa !268
  %16 = icmp eq ptr null, %15
  br i1 %16, label %17, label %18

17:                                               ; preds = %5
  store i32 81, ptr %6, align 4
  store i32 1, ptr %13, align 4
  br label %25

18:                                               ; preds = %5
  %19 = load ptr, ptr %7, align 8, !tbaa !70
  %20 = load ptr, ptr %8, align 8, !tbaa !268
  %21 = load ptr, ptr %9, align 8, !tbaa !183
  %22 = load i32, ptr %12, align 4, !tbaa !8
  %23 = load ptr, ptr %11, align 8, !tbaa !10
  %24 = call i32 @raccess_guess_apple_generic(ptr noundef %19, ptr noundef %20, ptr noundef %21, i32 noundef %22, ptr noundef %23)
  store i32 %24, ptr %6, align 4
  store i32 1, ptr %13, align 4
  br label %25

25:                                               ; preds = %18, %17
  call void @llvm.lifetime.end.p0(i64 4, ptr %12) #10
  %26 = load i32, ptr %6, align 4
  ret i32 %26
}