; Function Attrs: nounwind uwtable
define internal range(i32 0, 86) i32 @raccess_guess_apple_double(ptr readnone captures(none) %0, ptr noundef %1, ptr readnone captures(none) %2, ptr noundef writeonly captures(none) initializes((0, 8)) %3, ptr noundef writeonly captures(none) %4) #0 {
  store ptr null, ptr %3, align 8, !tbaa !190
  %6 = icmp eq ptr %1, null
  br i1 %6, label %9, label %7

7:                                                ; preds = %5
  %8 = tail call fastcc i32 @raccess_guess_apple_generic(ptr noundef %1, i32 noundef 333319, ptr noundef %4)
  br label %9

9:                                                ; preds = %5, %7
  %.0 = phi i32 [ %8, %7 ], [ 81, %5 ]
  ret i32 %.0
}